; Function Attrs: mustprogress nofree norecurse nosync nounwind memory(argmem: readwrite) uwtable
define dso_local void @_ZN4absl12log_internal19EncodeMessageLengthENS_4SpanIcEEPKS2_(ptr %0, i64 %1, ptr noundef readonly captures(none) %2) local_unnamed_addr #3 {
  %.not = icmp eq ptr %0, null
  br i1 %.not, label %_ZN4absl12log_internal12_GLOBAL__N_115EncodeRawVarintEmmPNS_4SpanIcEE.exit, label %4

4:                                                ; preds = %3
  %5 = load ptr, ptr %2, align 8, !tbaa !11
  %6 = icmp ult ptr %5, %0
  %.not.i = icmp eq i64 %1, 0
  %or.cond = select i1 %6, i1 true, i1 %.not.i
  br i1 %or.cond, label %_ZN4absl12log_internal12_GLOBAL__N_115EncodeRawVarintEmmPNS_4SpanIcEE.exit, label %.lr.ph.i.preheader

.lr.ph.i.preheader:                               ; preds = %4
  %7 = ptrtoint ptr %5 to i64
  %8 = getelementptr inbounds nuw i8, ptr %0, i64 %1
  %9 = ptrtoint ptr %8 to i64
  %10 = sub i64 %7, %9
  br label %.lr.ph.i

.lr.ph.i:                                         ; preds = %.lr.ph.i.preheader, %.lr.ph.i
  %.013.i = phi i64 [ %12, %.lr.ph.i ], [ 0, %.lr.ph.i.preheader ]
  %.01012.i = phi i64 [ %18, %.lr.ph.i ], [ %10, %.lr.ph.i.preheader ]
  %11 = and i64 %.01012.i, 127
  %12 = add nuw i64 %.013.i, 1
  %13 = icmp eq i64 %12, %1
  %14 = select i1 %13, i64 0, i64 128
  %15 = or disjoint i64 %14, %11
  %16 = trunc nuw i64 %15 to i8
  %17 = getelementptr inbounds nuw i8, ptr %0, i64 %.013.i
  store i8 %16, ptr %17, align 1, !tbaa !12
  %18 = lshr i64 %.01012.i, 7
  br i1 %13, label %_ZN4absl12log_internal12_GLOBAL__N_115EncodeRawVarintEmmPNS_4SpanIcEE.exit, label %.lr.ph.i, !llvm.loop !13

_ZN4absl12log_internal12_GLOBAL__N_115EncodeRawVarintEmmPNS_4SpanIcEE.exit: ; preds = %.lr.ph.i, %4, %3
  ret void
}